Certificate:
    Data:
        Version: 3 (0x2)
        Serial Number: 2 (0x2)
        Signature Algorithm: sha256WithRSAEncryption
        Issuer: C=es, ST=murcia, O=umu, OU=ppc, CN=cappc
        Validity
            Not Before: May 23 13:22:07 2025 GMT
            Not After : Jun 27 13:22:07 2026 GMT
        Subject: C=es, ST=murcia, O=umu, OU=ppc, CN=clientppc
        Subject Public Key Info:
            Public Key Algorithm: rsaEncryption
                Public-Key: (2048 bit)
                Modulus:
                    00:a6:46:2b:b0:df:e1:ca:bb:ec:35:86:83:d4:6b:
                    14:e9:eb:51:f4:04:74:bd:42:6e:73:af:10:7a:91:
                    51:09:08:c3:cc:7f:7c:3b:bd:e7:fa:a8:de:e9:73:
                    a9:47:48:50:57:37:5b:51:af:89:36:6e:76:b9:03:
                    97:05:17:70:4f:e3:b7:28:23:65:4e:b2:93:67:f0:
                    26:0d:16:de:07:84:af:6b:ac:d5:7c:4f:e6:93:06:
                    07:0e:95:4b:82:6d:e2:49:e1:e0:bb:30:fc:db:ec:
                    20:dc:75:de:18:37:34:22:0b:11:9c:a0:c3:14:b4:
                    ff:4c:04:28:d6:4b:6b:a5:8f:c7:fb:3b:3a:2d:f5:
                    00:5f:a8:f7:9a:40:af:32:73:b3:ad:77:75:16:b8:
                    3f:6d:80:a5:80:ec:54:dc:c5:06:1c:81:27:76:7d:
                    f7:a5:e8:89:0c:6b:f8:82:8a:e6:e2:f4:36:02:98:
                    0b:8e:eb:34:06:69:12:ac:fa:e8:7c:10:9e:6a:ff:
                    14:21:3b:7a:32:cb:74:fa:3c:fb:9d:28:fd:15:4b:
                    9c:2e:45:7f:d4:48:0a:7e:1a:a5:38:a0:09:d2:26:
                    8a:51:5e:87:94:08:7c:bd:c0:f2:02:87:a8:1e:e8:
                    fe:4d:b3:26:a3:eb:13:ea:dd:d5:fe:ca:30:40:67:
                    52:1d
                Exponent: 65537 (0x10001)
        X509v3 extensions:
            X509v3 Basic Constraints: 
                CA:FALSE
            X509v3 Subject Key Identifier: 
                E7:26:D6:83:99:34:82:8C:22:1A:25:B8:23:BE:6D:C2:D6:75:1C:18
            X509v3 Authority Key Identifier: 
                68:19:35:6C:DB:1D:F8:38:6F:10:B2:64:5E:8F:5A:8D:77:0B:F3:69
    Signature Algorithm: sha256WithRSAEncryption
    Signature Value:
        88:98:79:35:85:47:e1:fc:c2:6b:16:c5:18:7a:31:aa:18:e2:
        53:be:88:ac:cf:7d:ee:57:4a:d6:e3:e0:57:80:ce:03:4c:71:
        0b:cd:f6:d9:ce:15:82:f2:ad:80:4b:73:8c:c0:e6:24:50:79:
        30:e7:7f:a6:c0:9f:46:39:0c:71:06:4d:97:8c:36:de:bb:4b:
        93:87:4e:5f:9e:d2:37:9d:2e:d7:b3:cc:45:82:2c:0f:a3:09:
        45:34:db:08:57:7c:58:43:7f:c1:98:5d:e9:d6:97:b1:e1:9f:
        3a:ee:4b:87:f4:5f:8e:b3:bb:7c:c2:4c:49:78:0e:53:01:c1:
        75:b0:57:d2:3f:ba:31:92:cb:58:73:8a:5e:5d:24:33:32:0b:
        c2:23:7f:24:2c:d9:b7:c3:be:4b:95:fb:e6:2f:11:d1:d2:90:
        34:2a:76:de:48:46:52:57:8d:6b:ba:36:32:b7:b7:08:dd:03:
        d6:13:48:f1:c6:00:d2:16:a9:00:4c:84:17:cf:a8:a2:f3:28:
        58:5b:71:87:6a:1e:ae:fd:6b:a0:41:42:27:f0:a9:81:45:98:
        e2:d6:67:15:9a:12:39:73:1e:c5:50:dd:c5:bf:f1:13:79:fe:
        bc:2c:9f:2f:0c:64:a9:64:88:bc:54:14:b2:13:aa:cc:74:71:
        3f:bd:6f:77
-----BEGIN CERTIFICATE-----
MIIDYDCCAkigAwIBAgIBAjANBgkqhkiG9w0BAQsFADBKMQswCQYDVQQGEwJlczEP
MA0GA1UECAwGbXVyY2lhMQwwCgYDVQQKDAN1bXUxDDAKBgNVBAsMA3BwYzEOMAwG
A1UEAwwFY2FwcGMwHhcNMjUwNTIzMTMyMjA3WhcNMjYwNjI3MTMyMjA3WjBOMQsw
CQYDVQQGEwJlczEPMA0GA1UECAwGbXVyY2lhMQwwCgYDVQQKDAN1bXUxDDAKBgNV
BAsMA3BwYzESMBAGA1UEAwwJY2xpZW50cHBjMIIBIjANBgkqhkiG9w0BAQEFAAOC
AQ8AMIIBCgKCAQEApkYrsN/hyrvsNYaD1GsU6etR9AR0vUJuc68QepFRCQjDzH98
O73n+qje6XOpR0hQVzdbUa+JNm52uQOXBRdwT+O3KCNlTrKTZ/AmDRbeB4Sva6zV
fE/mkwYHDpVLgm3iSeHguzD82+wg3HXeGDc0IgsRnKDDFLT/TAQo1ktrpY/H+zs6
LfUAX6j3mkCvMnOzrXd1Frg/bYClgOxU3MUGHIEndn33peiJDGv4gorm4vQ2ApgL
jus0BmkSrProfBCeav8UITt6Mst0+jz7nSj9FUucLkV/1EgKfhqlOKAJ0iaKUV6H
lAh8vcDyAoeoHuj+TbMmo+sT6t3V/sowQGdSHQIDAQABo00wSzAJBgNVHRMEAjAA
MB0GA1UdDgQWBBTnJtaDmTSCjCIaJbgjvm3C1nUcGDAfBgNVHSMEGDAWgBRoGTVs
2x34OG8QsmRej1qNdwvzaTANBgkqhkiG9w0BAQsFAAOCAQEAiJh5NYVH4fzCaxbF
GHoxqhjiU76IrM997ldK1uPgV4DOA0xxC8322c4VgvKtgEtzjMDmJFB5MOd/psCf
RjkMcQZNl4w23rtLk4dOX57SN50u17PMRYIsD6MJRTTbCFd8WEN/wZhd6daXseGf
Ou5Lh/RfjrO7fMJMSXgOUwHBdbBX0j+6MZLLWHOKXl0kMzILwiN/JCzZt8O+S5X7
5i8R0dKQNCp23khGUleNa7o2Mre3CN0D1hNI8cYA0hapAEyEF8+oovMoWFtxh2oe
rv1roEFCJ/CpgUWY4tZnFZoSOXMexVDdxb/xE3n+vCyfLwxkqWSIvFQUshOqzHRx
P71vdw==
-----END CERTIFICATE-----
