Certificate:
    Data:
        Version: 3 (0x2)
        Serial Number: 1 (0x1)
        Signature Algorithm: sha256WithRSAEncryption
        Issuer: C=es, ST=murcia, O=umu, OU=ppc, CN=cappc
        Validity
            Not Before: May 23 13:18:49 2025 GMT
            Not After : Jun 27 13:18:49 2026 GMT
        Subject: C=es, ST=murcia, O=umu, OU=ppc, CN=localhost
        Subject Public Key Info:
            Public Key Algorithm: rsaEncryption
                Public-Key: (2048 bit)
                Modulus:
                    00:ad:6d:71:9d:14:86:90:dd:9c:41:c7:83:36:27:
                    8b:1c:9a:83:46:ed:e0:59:d2:23:3e:c6:b9:23:3d:
                    ff:9b:5b:dc:96:98:01:86:f7:d1:90:d3:3a:fa:86:
                    ae:fc:16:e3:95:ce:4d:6a:55:21:22:ff:51:8f:f1:
                    1a:e4:90:24:54:3e:ca:40:46:24:e8:b4:d7:d0:ee:
                    fb:7b:f7:97:3d:5f:16:3f:bb:96:8c:7c:d6:80:65:
                    37:77:79:e5:b9:89:d7:e9:0c:76:b4:75:8a:23:a0:
                    01:39:59:13:ab:ef:b2:63:89:a6:a1:5f:c5:67:f7:
                    2e:a2:f8:2e:e0:41:66:d9:79:a9:f9:87:0a:55:06:
                    b4:7b:75:45:78:91:67:ff:96:10:f9:63:ce:4b:87:
                    f7:0a:c5:19:01:ce:31:c9:cf:5c:49:b8:63:b4:04:
                    a2:24:de:83:84:bb:7a:18:a2:48:e8:c2:86:d5:ad:
                    26:d5:1b:ed:b0:ea:5e:22:7d:62:52:47:eb:b1:ca:
                    ed:70:3f:9d:f5:e4:c3:59:eb:0a:6b:47:fc:81:28:
                    89:8d:12:66:54:28:3a:ab:94:f3:da:b8:b4:c7:c1:
                    67:ac:2e:61:31:ae:59:fe:ab:30:53:40:4d:f5:3b:
                    74:7b:f3:3e:ee:d4:91:a4:26:f6:64:8d:aa:6a:1e:
                    a0:25
                Exponent: 65537 (0x10001)
        X509v3 extensions:
            X509v3 Basic Constraints: 
                CA:FALSE
            X509v3 Subject Key Identifier: 
                D6:31:B2:21:AE:ED:4A:B9:C0:0A:DF:ED:93:F2:4C:86:8C:22:C5:55
            X509v3 Authority Key Identifier: 
                68:19:35:6C:DB:1D:F8:38:6F:10:B2:64:5E:8F:5A:8D:77:0B:F3:69
    Signature Algorithm: sha256WithRSAEncryption
    Signature Value:
        8e:1c:72:e3:53:20:2d:90:82:4c:ca:30:12:d7:cd:5e:55:5a:
        fc:ea:14:6b:f2:86:3b:b0:52:32:b2:ef:0a:08:f2:83:85:8b:
        7f:d7:8a:7e:2c:2c:e2:b1:7a:1e:56:dc:5b:10:23:79:07:a7:
        37:c6:96:72:85:4b:44:0a:e7:71:5e:df:99:c6:e0:f2:43:b2:
        06:28:fe:72:cb:09:9f:72:0a:04:20:63:b9:bf:71:31:2b:4c:
        db:23:86:a3:5c:60:ae:c8:fe:cd:29:b2:14:af:5e:f8:2f:c2:
        79:bb:34:3a:b2:c3:31:1b:73:dd:75:c1:8e:dc:29:22:38:73:
        be:a0:cb:87:a5:0d:49:eb:01:1f:b7:05:4b:ec:ad:42:2d:79:
        e5:4e:bf:74:31:1e:32:16:ec:20:44:e6:52:42:22:d9:c4:94:
        58:30:13:39:85:d6:bf:2d:2c:8f:56:43:0e:d3:6f:5d:85:bf:
        22:53:ed:93:2d:4f:ce:1b:49:3e:63:3f:07:42:6e:5a:cd:87:
        77:3a:30:db:bc:76:a3:74:33:86:13:5c:94:e1:a9:e0:ee:ba:
        9c:c0:1d:b1:99:c7:38:9f:42:35:46:88:f9:95:31:b7:49:58:
        b2:0c:48:db:0f:2d:df:d1:9a:24:12:d7:21:b4:fd:29:7c:05:
        ca:bb:9a:43
-----BEGIN CERTIFICATE-----
MIIDYDCCAkigAwIBAgIBATANBgkqhkiG9w0BAQsFADBKMQswCQYDVQQGEwJlczEP
MA0GA1UECAwGbXVyY2lhMQwwCgYDVQQKDAN1bXUxDDAKBgNVBAsMA3BwYzEOMAwG
A1UEAwwFY2FwcGMwHhcNMjUwNTIzMTMxODQ5WhcNMjYwNjI3MTMxODQ5WjBOMQsw
CQYDVQQGEwJlczEPMA0GA1UECAwGbXVyY2lhMQwwCgYDVQQKDAN1bXUxDDAKBgNV
BAsMA3BwYzESMBAGA1UEAwwJbG9jYWxob3N0MIIBIjANBgkqhkiG9w0BAQEFAAOC
AQ8AMIIBCgKCAQEArW1xnRSGkN2cQceDNieLHJqDRu3gWdIjPsa5Iz3/m1vclpgB
hvfRkNM6+oau/Bbjlc5NalUhIv9Rj/Ea5JAkVD7KQEYk6LTX0O77e/eXPV8WP7uW
jHzWgGU3d3nluYnX6Qx2tHWKI6ABOVkTq++yY4mmoV/FZ/cuovgu4EFm2Xmp+YcK
VQa0e3VFeJFn/5YQ+WPOS4f3CsUZAc4xyc9cSbhjtASiJN6DhLt6GKJI6MKG1a0m
1RvtsOpeIn1iUkfrscrtcD+d9eTDWesKa0f8gSiJjRJmVCg6q5Tz2ri0x8FnrC5h
Ma5Z/qswU0BN9Tt0e/M+7tSRpCb2ZI2qah6gJQIDAQABo00wSzAJBgNVHRMEAjAA
MB0GA1UdDgQWBBTWMbIhru1KucAK3+2T8kyGjCLFVTAfBgNVHSMEGDAWgBRoGTVs
2x34OG8QsmRej1qNdwvzaTANBgkqhkiG9w0BAQsFAAOCAQEAjhxy41MgLZCCTMow
EtfNXlVa/OoUa/KGO7BSMrLvCgjyg4WLf9eKfiws4rF6HlbcWxAjeQenN8aWcoVL
RArncV7fmcbg8kOyBij+cssJn3IKBCBjub9xMStM2yOGo1xgrsj+zSmyFK9e+C/C
ebs0OrLDMRtz3XXBjtwpIjhzvqDLh6UNSesBH7cFS+ytQi155U6/dDEeMhbsIETm
UkIi2cSUWDATOYXWvy0sj1ZDDtNvXYW/IlPtky1PzhtJPmM/B0JuWs2Hdzow27x2
o3QzhhNclOGp4O66nMAdsZnHOJ9CNUaI+ZUxt0lYsgxI2w8t39GaJBLXIbT9KXwF
yruaQw==
-----END CERTIFICATE-----
