Certificate:
    Data:
        Version: 3 (0x2)
        Serial Number: 3 (0x3)
        Signature Algorithm: sha256WithRSAEncryption
        Issuer: C=es, ST=murcia, O=umu, OU=ppc, CN=localhost
        Validity
            Not Before: Nov  3 13:13:18 2024 GMT
            Not After : Dec  8 13:13:18 2025 GMT
        Subject: C=es, ST=murcia, O=umu, OU=ppc, CN=localhost.client
        Subject Public Key Info:
            Public Key Algorithm: rsaEncryption
                Public-Key: (2048 bit)
                Modulus:
                    00:ee:e9:2c:f0:27:ee:9d:ba:2c:f8:9a:0b:52:bf:
                    a9:7a:1c:fc:fd:2c:15:45:f7:4c:3d:f5:71:62:55:
                    88:37:18:24:3e:36:e1:d9:82:27:18:51:d8:bd:6a:
                    41:a5:c4:bf:eb:a7:6d:c9:fa:5d:b5:c2:0b:ce:c9:
                    6a:ea:cc:1e:c8:0f:9a:a6:fd:c3:d3:63:ff:e5:01:
                    41:65:b1:b1:1c:29:06:2f:1b:0a:72:59:40:42:6a:
                    8d:4c:d2:51:db:9c:05:94:81:73:e0:e0:3d:68:a9:
                    b3:79:d8:d0:b7:a8:eb:45:d5:b8:0e:19:04:c1:d3:
                    87:3d:1c:f1:6e:f2:63:92:0e:46:f2:88:ad:0d:58:
                    41:f3:8a:50:c0:e2:b2:6c:77:c2:ea:e3:02:1f:69:
                    9a:09:dc:c8:3a:89:8d:00:e8:80:79:ec:08:10:3c:
                    45:f0:d3:dc:21:0d:41:2d:6c:fd:f3:7c:de:16:9b:
                    73:65:be:71:05:4b:66:32:e5:c3:ad:1c:4b:50:f2:
                    36:a6:5b:b8:28:79:5a:b6:1f:66:b9:da:ff:23:72:
                    80:66:03:c0:52:58:c6:f3:3e:f3:14:76:81:5b:0e:
                    8d:c9:1f:f2:c5:11:b4:40:d8:26:b6:5d:80:cb:e8:
                    91:93:58:bd:71:9d:df:b6:77:e3:9d:e2:e6:df:7e:
                    a1:11
                Exponent: 65537 (0x10001)
        X509v3 extensions:
            X509v3 Basic Constraints: 
                CA:FALSE
            X509v3 Subject Key Identifier: 
                5A:42:2C:97:DA:FB:0C:08:B8:B7:82:6A:E3:FD:8A:EC:87:37:41:ED
            X509v3 Authority Key Identifier: 
                1C:1A:EB:31:0C:BF:17:14:3F:71:C0:1C:3A:33:4C:EC:8E:6E:E5:8F
    Signature Algorithm: sha256WithRSAEncryption
    Signature Value:
        07:fc:f7:17:00:85:14:4c:8d:fc:ea:45:19:de:2f:dc:eb:31:
        7b:d3:ab:cd:c3:3a:78:93:fe:da:4d:71:f5:00:63:de:b9:41:
        64:9b:a2:fa:a8:f7:4e:a0:86:50:5b:62:fb:db:97:86:82:f6:
        74:2b:45:5a:23:93:ab:43:b2:c9:e1:c4:c9:93:1a:d9:61:37:
        e3:a3:45:14:c1:e2:89:25:b5:8a:ab:10:bd:bb:81:aa:90:a5:
        93:5b:25:30:73:62:cb:64:b4:b9:8b:85:f8:02:b1:62:71:ba:
        6b:b2:79:16:a0:39:64:dd:6c:ca:11:bb:12:ce:46:bf:53:2e:
        f7:f4:84:09:7c:2c:4e:21:bf:8e:58:7f:26:1c:fa:eb:bf:d9:
        aa:01:67:61:83:c9:fd:04:08:0d:62:9b:a1:57:3d:db:cd:bc:
        e8:4d:75:72:93:af:de:ed:00:47:d7:84:24:6e:3f:90:23:3b:
        8e:2c:6d:d1:14:df:28:8e:54:14:21:cc:32:49:0b:9a:b8:1c:
        bc:31:3e:46:09:76:bc:2d:ce:a8:f9:de:78:66:57:17:9c:70:
        95:2a:64:5d:2f:0d:99:42:2b:d9:b3:07:f8:3f:e8:0e:93:d7:
        82:3d:35:69:f7:d2:34:16:a2:2a:cb:be:e5:0b:40:84:73:63:
        08:ac:bd:64
-----BEGIN CERTIFICATE-----
MIIDazCCAlOgAwIBAgIBAzANBgkqhkiG9w0BAQsFADBOMQswCQYDVQQGEwJlczEP
MA0GA1UECAwGbXVyY2lhMQwwCgYDVQQKDAN1bXUxDDAKBgNVBAsMA3BwYzESMBAG
A1UEAwwJbG9jYWxob3N0MB4XDTI0MTEwMzEzMTMxOFoXDTI1MTIwODEzMTMxOFow
VTELMAkGA1UEBhMCZXMxDzANBgNVBAgMBm11cmNpYTEMMAoGA1UECgwDdW11MQww
CgYDVQQLDANwcGMxGTAXBgNVBAMMEGxvY2FsaG9zdC5jbGllbnQwggEiMA0GCSqG
SIb3DQEBAQUAA4IBDwAwggEKAoIBAQDu6SzwJ+6duiz4mgtSv6l6HPz9LBVF90w9
9XFiVYg3GCQ+NuHZgicYUdi9akGlxL/rp23J+l21wgvOyWrqzB7ID5qm/cPTY//l
AUFlsbEcKQYvGwpyWUBCao1M0lHbnAWUgXPg4D1oqbN52NC3qOtF1bgOGQTB04c9
HPFu8mOSDkbyiK0NWEHzilDA4rJsd8Lq4wIfaZoJ3Mg6iY0A6IB57AgQPEXw09wh
DUEtbP3zfN4Wm3NlvnEFS2Yy5cOtHEtQ8jamW7goeVq2H2a52v8jcoBmA8BSWMbz
PvMUdoFbDo3JH/LFEbRA2Ca2XYDL6JGTWL1xnd+2d+Od4ubffqERAgMBAAGjTTBL
MAkGA1UdEwQCMAAwHQYDVR0OBBYEFFpCLJfa+wwIuLeCauP9iuyHN0HtMB8GA1Ud
IwQYMBaAFBwa6zEMvxcUP3HAHDozTOyObuWPMA0GCSqGSIb3DQEBCwUAA4IBAQAH
/PcXAIUUTI386kUZ3i/c6zF706vNwzp4k/7aTXH1AGPeuUFkm6L6qPdOoIZQW2L7
25eGgvZ0K0VaI5OrQ7LJ4cTJkxrZYTfjo0UUweKJJbWKqxC9u4GqkKWTWyUwc2LL
ZLS5i4X4ArFicbprsnkWoDlk3WzKEbsSzka/Uy739IQJfCxOIb+OWH8mHPrrv9mq
AWdhg8n9BAgNYpuhVz3bzbzoTXVyk6/e7QBH14Qkbj+QIzuOLG3RFN8ojlQUIcwy
SQuauBy8MT5GCXa8Lc6o+d54ZlcXnHCVKmRdLw2ZQivZswf4P+gOk9eCPTVp99I0
FqIqy77lC0CEc2MIrL1k
-----END CERTIFICATE-----
