Certificate:
    Data:
        Version: 3 (0x2)
        Serial Number: 2 (0x2)
        Signature Algorithm: sha256WithRSAEncryption
        Issuer: C=es, ST=murcia, O=umu, OU=ppc, CN=localhost
        Validity
            Not Before: Nov  3 13:10:21 2024 GMT
            Not After : Dec  8 13:10:21 2025 GMT
        Subject: C=es, ST=murcia, O=umu, OU=ppc, CN=localhost.server
        Subject Public Key Info:
            Public Key Algorithm: rsaEncryption
                Public-Key: (2048 bit)
                Modulus:
                    00:a1:77:64:53:bf:48:c8:52:d5:ea:7b:12:a3:47:
                    00:1e:2e:9d:a0:4c:53:aa:7e:6d:0d:20:0b:4f:14:
                    c0:08:ae:c9:99:fe:ef:10:50:99:07:c0:c0:94:e7:
                    56:bc:66:0d:ec:16:91:72:cc:30:92:68:de:e2:fc:
                    cb:e6:b5:f8:29:6d:33:5c:fe:62:3a:88:29:1a:e1:
                    f7:56:4c:59:c0:5a:e7:10:da:f2:29:49:3e:98:4e:
                    83:22:f0:a7:f6:20:1b:12:40:fa:21:c7:9a:97:56:
                    92:0f:29:31:7a:67:ec:93:73:55:7d:71:5e:87:d4:
                    ee:f8:33:90:8a:5d:92:2a:10:f5:84:3a:5c:75:cb:
                    08:4f:3f:7f:b9:11:af:ad:3c:1b:86:88:58:9f:ac:
                    c2:a3:20:83:16:a5:5f:73:6e:05:e1:04:f6:2f:02:
                    07:8e:bf:23:30:fa:65:86:20:2f:74:3d:bb:da:be:
                    a1:94:7b:3b:82:ee:6d:d8:a6:cd:42:cd:3a:35:6e:
                    58:fa:8d:a3:4b:04:7f:75:55:dc:79:36:1a:1c:9a:
                    2c:2e:b6:32:ce:bc:56:17:a0:70:8c:00:b2:a6:7f:
                    01:fc:1f:47:1b:4d:db:55:fb:37:91:a6:ca:ec:87:
                    2d:c9:3c:52:63:c3:78:6b:96:d9:62:af:81:5b:4f:
                    5b:7f
                Exponent: 65537 (0x10001)
        X509v3 extensions:
            X509v3 Basic Constraints: 
                CA:FALSE
            X509v3 Subject Key Identifier: 
                80:FD:9E:70:74:2D:9C:AB:D2:F4:7E:5C:63:E8:62:84:E9:0A:78:11
            X509v3 Authority Key Identifier: 
                1C:1A:EB:31:0C:BF:17:14:3F:71:C0:1C:3A:33:4C:EC:8E:6E:E5:8F
    Signature Algorithm: sha256WithRSAEncryption
    Signature Value:
        4c:4b:0b:06:4e:7e:6c:b1:a6:5b:d8:4f:84:05:9f:d2:81:32:
        d8:08:8f:72:39:a8:d3:3c:d5:cb:b3:fa:f6:97:e3:1f:58:72:
        91:0c:46:4b:0d:1f:eb:20:5f:d8:3c:86:32:17:71:10:38:f1:
        23:21:8f:ec:73:f0:56:22:09:50:d9:78:40:ce:b7:6a:f2:46:
        f8:e5:b4:d6:22:d1:19:bc:2f:4c:bc:06:3a:41:33:fc:41:af:
        69:f4:64:11:d2:b4:6d:54:75:46:de:4d:35:51:c9:39:aa:62:
        80:3a:89:72:01:10:04:3f:fb:58:b2:33:b5:f0:98:9a:66:6b:
        c8:0c:c0:f9:6f:8b:7e:bc:a9:c5:fe:67:0b:29:c6:1b:dd:69:
        a3:fe:7a:a1:e5:26:60:00:06:b9:39:14:19:88:31:04:5f:b9:
        36:b2:44:5f:5a:8a:36:67:79:63:fa:f3:a6:74:9f:83:0f:5f:
        65:fa:72:18:6f:60:61:8d:70:37:fd:09:22:83:64:79:01:6d:
        49:23:8e:a4:9c:ec:e1:10:7c:c0:47:9b:ae:ab:30:8a:57:91:
        51:9a:36:79:60:af:2f:28:b8:d6:18:34:1a:cc:f1:6c:8c:56:
        95:9a:2c:cb:df:4b:0c:df:ca:15:88:b7:24:cf:57:13:c7:20:
        87:2a:ae:38
-----BEGIN CERTIFICATE-----
MIIDazCCAlOgAwIBAgIBAjANBgkqhkiG9w0BAQsFADBOMQswCQYDVQQGEwJlczEP
MA0GA1UECAwGbXVyY2lhMQwwCgYDVQQKDAN1bXUxDDAKBgNVBAsMA3BwYzESMBAG
A1UEAwwJbG9jYWxob3N0MB4XDTI0MTEwMzEzMTAyMVoXDTI1MTIwODEzMTAyMVow
VTELMAkGA1UEBhMCZXMxDzANBgNVBAgMBm11cmNpYTEMMAoGA1UECgwDdW11MQww
CgYDVQQLDANwcGMxGTAXBgNVBAMMEGxvY2FsaG9zdC5zZXJ2ZXIwggEiMA0GCSqG
SIb3DQEBAQUAA4IBDwAwggEKAoIBAQChd2RTv0jIUtXqexKjRwAeLp2gTFOqfm0N
IAtPFMAIrsmZ/u8QUJkHwMCU51a8Zg3sFpFyzDCSaN7i/MvmtfgpbTNc/mI6iCka
4fdWTFnAWucQ2vIpST6YToMi8Kf2IBsSQPohx5qXVpIPKTF6Z+yTc1V9cV6H1O74
M5CKXZIqEPWEOlx1ywhPP3+5Ea+tPBuGiFifrMKjIIMWpV9zbgXhBPYvAgeOvyMw
+mWGIC90PbvavqGUezuC7m3Yps1CzTo1blj6jaNLBH91Vdx5NhocmiwutjLOvFYX
oHCMALKmfwH8H0cbTdtV+zeRpsrshy3JPFJjw3hrltlir4FbT1t/AgMBAAGjTTBL
MAkGA1UdEwQCMAAwHQYDVR0OBBYEFID9nnB0LZyr0vR+XGPoYoTpCngRMB8GA1Ud
IwQYMBaAFBwa6zEMvxcUP3HAHDozTOyObuWPMA0GCSqGSIb3DQEBCwUAA4IBAQBM
SwsGTn5ssaZb2E+EBZ/SgTLYCI9yOajTPNXLs/r2l+MfWHKRDEZLDR/rIF/YPIYy
F3EQOPEjIY/sc/BWIglQ2XhAzrdq8kb45bTWItEZvC9MvAY6QTP8Qa9p9GQR0rRt
VHVG3k01Uck5qmKAOolyARAEP/tYsjO18JiaZmvIDMD5b4t+vKnF/mcLKcYb3Wmj
/nqh5SZgAAa5ORQZiDEEX7k2skRfWoo2Z3lj+vOmdJ+DD19l+nIYb2BhjXA3/Qki
g2R5AW1JI46knOzhEHzAR5uuqzCKV5FRmjZ5YK8vKLjWGDQazPFsjFaVmizL30sM
38oViLckz1cTxyCHKq44
-----END CERTIFICATE-----
